target datalayout = "e-m:e-p270:32:32-p271:32:32-p272:64:64-i64:64-i128:128-f80:128-n8:16:32:64-S128"
target triple = "x86_64-pc-linux-gnu"

%struct.Inter_ManParams_t_ = type { i32, i32, i32, i32, i32, i32, i32, i32, i32, i32, i32, i32, i32, i32, i32, i32, i32, i32, ptr }

; Function Attrs: nounwind uwtable
define void @Inter_ManSetDefaultParams(ptr noundef %0) #0 {
  %2 = alloca ptr, align 8
  store ptr %0, ptr %2, align 8, !tbaa !3
  %3 = load ptr, ptr %2, align 8, !tbaa !3
  call void @llvm.memset.p0.i64(ptr align 8 %3, i8 0, i64 80, i1 false)
  %4 = load ptr, ptr %2, align 8, !tbaa !3
  %5 = getelementptr inbounds nuw %struct.Inter_ManParams_t_, ptr %4, i32 0, i32 0
  store i32 0, ptr %5, align 8, !tbaa !8
  %6 = load ptr, ptr %2, align 8, !tbaa !3
  %7 = getelementptr inbounds nuw %struct.Inter_ManParams_t_, ptr %6, i32 0, i32 1
  store i32 0, ptr %7, align 4, !tbaa !12
  %8 = load ptr, ptr %2, align 8, !tbaa !3
  %9 = getelementptr inbounds nuw %struct.Inter_ManParams_t_, ptr %8, i32 0, i32 2
  store i32 0, ptr %9, align 8, !tbaa !13
  %10 = load ptr, ptr %2, align 8, !tbaa !3
  %11 = getelementptr inbounds nuw %struct.Inter_ManParams_t_, ptr %10, i32 0, i32 3
  store i32 1, ptr %11, align 4, !tbaa !14
  %12 = load ptr, ptr %2, align 8, !tbaa !3
  %13 = getelementptr inbounds nuw %struct.Inter_ManParams_t_, ptr %12, i32 0, i32 4
  store i32 0, ptr %13, align 8, !tbaa !15
  %14 = load ptr, ptr %2, align 8, !tbaa !3
  %15 = getelementptr inbounds nuw %struct.Inter_ManParams_t_, ptr %14, i32 0, i32 5
  store i32 0, ptr %15, align 4, !tbaa !16
  %16 = load ptr, ptr %2, align 8, !tbaa !3
  %17 = getelementptr inbounds nuw %struct.Inter_ManParams_t_, ptr %16, i32 0, i32 6
  store i32 0, ptr %17, align 8, !tbaa !17
  %18 = load ptr, ptr %2, align 8, !tbaa !3
  %19 = getelementptr inbounds nuw %struct.Inter_ManParams_t_, ptr %18, i32 0, i32 7
  store i32 0, ptr %19, align 4, !tbaa !18
  %20 = load ptr, ptr %2, align 8, !tbaa !3
  %21 = getelementptr inbounds nuw %struct.Inter_ManParams_t_, ptr %20, i32 0, i32 8
  store i32 0, ptr %21, align 8, !tbaa !19
  %22 = load ptr, ptr %2, align 8, !tbaa !3
  %23 = getelementptr inbounds nuw %struct.Inter_ManParams_t_, ptr %22, i32 0, i32 9
  store i32 1, ptr %23, align 4, !tbaa !20
  %24 = load ptr, ptr %2, align 8, !tbaa !3
  %25 = getelementptr inbounds nuw %struct.Inter_ManParams_t_, ptr %24, i32 0, i32 10
  store i32 0, ptr %25, align 8, !tbaa !21
  %26 = load ptr, ptr %2, align 8, !tbaa !3
  %27 = getelementptr inbounds nuw %struct.Inter_ManParams_t_, ptr %26, i32 0, i32 11
  store i32 0, ptr %27, align 4, !tbaa !22
  %28 = load ptr, ptr %2, align 8, !tbaa !3
  %29 = getelementptr inbounds nuw %struct.Inter_ManParams_t_, ptr %28, i32 0, i32 12
  store i32 0, ptr %29, align 8, !tbaa !23
  %30 = load ptr, ptr %2, align 8, !tbaa !3
  %31 = getelementptr inbounds nuw %struct.Inter_ManParams_t_, ptr %30, i32 0, i32 13
  store i32 0, ptr %31, align 4, !tbaa !24
  %32 = load ptr, ptr %2, align 8, !tbaa !3
  %33 = getelementptr inbounds nuw %struct.Inter_ManParams_t_, ptr %32, i32 0, i32 14
  store i32 0, ptr %33, align 8, !tbaa !25
  %34 = load ptr, ptr %2, align 8, !tbaa !3
  %35 = getelementptr inbounds nuw %struct.Inter_ManParams_t_, ptr %34, i32 0, i32 16
  store i32 0, ptr %35, align 8, !tbaa !26
  %36 = load ptr, ptr %2, align 8, !tbaa !3
  %37 = getelementptr inbounds nuw %struct.Inter_ManParams_t_, ptr %36, i32 0, i32 17
  store i32 -1, ptr %37, align 4, !tbaa !27
  ret void
}