; Function Attrs: mustprogress nofree norecurse nosync nounwind willreturn memory(argmem: write) uwtable
define void @Inter_ManSetDefaultParams(ptr noundef writeonly captures(none) initializes((0, 80)) %0) local_unnamed_addr #0 {
  %2 = getelementptr inbounds nuw i8, ptr %0, i64 12
  tail call void @llvm.memset.p0.i64(ptr noundef nonnull align 8 dereferenceable(80) %0, i8 0, i64 80, i1 false)
  store i32 1, ptr %2, align 4, !tbaa !3
  %3 = getelementptr inbounds nuw i8, ptr %0, i64 16
  %4 = getelementptr inbounds nuw i8, ptr %0, i64 36
  tail call void @llvm.memset.p0.i64(ptr noundef nonnull align 8 dereferenceable(20) %3, i8 0, i64 20, i1 false)
  store i32 1, ptr %4, align 4, !tbaa !10
  %5 = getelementptr inbounds nuw i8, ptr %0, i64 40
  %6 = getelementptr inbounds nuw i8, ptr %0, i64 68
  tail call void @llvm.memset.p0.i64(ptr noundef nonnull align 8 dereferenceable(20) %5, i8 0, i64 20, i1 false)
  store i32 -1, ptr %6, align 4, !tbaa !11
  ret void
}